(dp0
I1
(lp1
(i__main__
Product
p2
(dp3
S'_Price'
p4
S'897'
p5
sS'_Product__id'
p6
I0
sS'_Group'
p7
S'dfgfd'
p8
sS'_Subgroup'
p9
S'asad'
p10
sS'_Name'
p11
S'fffgdfg'
p12
sba(i__main__
Product
p13
(dp14
g4
I5412
sg6
I1
sg7
S'sf'
p15
sg9
S'cnb'
p16
sg11
S'dffsgfgfdh'
p17
sba(i__main__
Product
p18
(dp19
g4
S'897'
p20
sg6
I0
sg7
S'dfgfd'
p21
sg9
S'asad'
p22
sg11
S'fffgdfg'
p23
sbas.