(i__main__
Customer
p0
(dp1
S'_Address'
p2
S'd215'
p3
sS'_PhNo'
p4
S'8511112501'
p5
sS'_Customer__id'
p6
I1
sS'_Name'
p7
S'priyendu'
p8
sb.(i__main__
Customer
p0
(dp1
S'_Address'
p2
S'd215'
p3
sS'_PhNo'
p4
S'8866556688'
p5
sS'_Customer__id'
p6
I2
sS'_Name'
p7
S'rushit'
p8
sb.