(i__main__
Product
p0
(dp1
S'_Price'
p2
S'897'
p3
sS'_Product__id'
p4
I0
sS'_Group'
p5
S'dfgfd'
p6
sS'_Subgroup'
p7
S'asad'
p8
sS'_Name'
p9
S'fffgdfg'
p10
sb.(i__main__
Product
p0
(dp1
S'_Price'
p2
I5412
sS'_Product__id'
p3
I1
sS'_Group'
p4
S'sf'
p5
sS'_Subgroup'
p6
S'cnb'
p7
sS'_Name'
p8
S'dffsgfgfdh'
p9
sb.